target datalayout = "e-m:e-p270:32:32-p271:32:32-p272:64:64-i64:64-i128:128-f80:128-n8:16:32:64-S128"
target triple = "x86_64-pc-linux-gnu"

%struct.PJconsts = type { ptr, ptr, ptr, ptr, ptr, ptr, ptr, ptr, ptr, ptr, ptr, ptr, i32, ptr, ptr, ptr, ptr, ptr, ptr, ptr, ptr, double, double, double, double, double, double, double, double, double, double, double, double, double, double, double, double, double, double, double, double, double, double, i32, i32, i32, i32, i32, i32, i32, i32, i32, i32, i32, ptr, ptr, ptr, ptr, ptr, ptr, double, double, double, double, double, double, double, double, double, double, double, i32, [7 x double], i32, ptr, ptr, double, double, i32, [4 x i8], %"class.std::shared_ptr", i8, double, i8, %"class.std::__cxx11::basic_string", %"class.std::__cxx11::basic_string", %"class.std::__cxx11::basic_string", i8, %"class.std::vector", i32, %"class.std::vector.3", i32, i8, i8, i8, ptr }
%"class.std::shared_ptr" = type { %"class.std::__shared_ptr" }
%"class.std::__shared_ptr" = type { ptr, %"class.std::__shared_count" }
%"class.std::__shared_count" = type { ptr }
%"class.std::__cxx11::basic_string" = type { %"struct.std::__cxx11::basic_string<char>::_Alloc_hider", i64, %union.anon }
%"struct.std::__cxx11::basic_string<char>::_Alloc_hider" = type { ptr }
%union.anon = type { i64, [8 x i8] }
%"class.std::vector" = type { %"struct.std::_Vector_base" }
%"struct.std::_Vector_base" = type { %"struct.std::_Vector_base<osgeo::proj::operation::GridDescription, std::allocator<osgeo::proj::operation::GridDescription>>::_Vector_impl" }
%"struct.std::_Vector_base<osgeo::proj::operation::GridDescription, std::allocator<osgeo::proj::operation::GridDescription>>::_Vector_impl" = type { %"struct.std::_Vector_base<osgeo::proj::operation::GridDescription, std::allocator<osgeo::proj::operation::GridDescription>>::_Vector_impl_data" }
%"struct.std::_Vector_base<osgeo::proj::operation::GridDescription, std::allocator<osgeo::proj::operation::GridDescription>>::_Vector_impl_data" = type { ptr, ptr, ptr }
%"class.std::vector.3" = type { %"struct.std::_Vector_base.4" }
%"struct.std::_Vector_base.4" = type { %"struct.std::_Vector_base<PJCoordOperation, std::allocator<PJCoordOperation>>::_Vector_impl" }
%"struct.std::_Vector_base<PJCoordOperation, std::allocator<PJCoordOperation>>::_Vector_impl" = type { %"struct.std::_Vector_base<PJCoordOperation, std::allocator<PJCoordOperation>>::_Vector_impl_data" }
%"struct.std::_Vector_base<PJCoordOperation, std::allocator<PJCoordOperation>>::_Vector_impl_data" = type { ptr, ptr, ptr }
%"struct.(anonymous namespace)::pj_imw_p_data" = type { double, double, double, double, double, double, double, double, double, double, double, double, ptr, i32 }
%struct.PJ_XY = type { double, double }
%struct.PJ_LP = type { double, double }
%union.PJ_COORD = type { [4 x double] }

; Function Attrs: mustprogress uwtable
define internal { double, double } @_ZL15imw_p_e_inverse5PJ_XYP8PJconsts(double %0, double %1, ptr noundef %2) #0 {
  %4 = alloca %struct.PJ_LP, align 8
  %5 = alloca %struct.PJ_XY, align 8
  %6 = alloca ptr, align 8
  %7 = alloca %struct.PJ_LP, align 8
  %8 = alloca ptr, align 8
  %9 = alloca %struct.PJ_XY, align 8
  %10 = alloca double, align 8
  %11 = alloca i32, align 4
  %12 = alloca i32, align 4
  %13 = alloca %struct.PJ_XY, align 8
  %14 = alloca %struct.PJ_LP, align 8
  %15 = alloca double, align 8
  %16 = alloca %union.PJ_COORD, align 8
  %17 = alloca i32, align 4
  %18 = alloca %union.PJ_COORD, align 8
  %19 = getelementptr inbounds nuw { double, double }, ptr %5, i32 0, i32 0
  store double %0, ptr %19, align 8
  %20 = getelementptr inbounds nuw { double, double }, ptr %5, i32 0, i32 1
  store double %1, ptr %20, align 8
  store ptr %2, ptr %6, align 8, !tbaa !3
  call void @llvm.lifetime.start.p0(i64 16, ptr %7) #9
  call void @llvm.memset.p0.i64(ptr align 8 %7, i8 0, i64 16, i1 false)
  call void @llvm.lifetime.start.p0(i64 8, ptr %8) #9
  %21 = load ptr, ptr %6, align 8, !tbaa !3
  %22 = getelementptr inbounds nuw %struct.PJconsts, ptr %21, i32 0, i32 11
  %23 = load ptr, ptr %22, align 8, !tbaa !43
  store ptr %23, ptr %8, align 8, !tbaa !41
  call void @llvm.lifetime.start.p0(i64 16, ptr %9) #9
  call void @llvm.lifetime.start.p0(i64 8, ptr %10) #9
  store double 0.000000e+00, ptr %10, align 8, !tbaa !51
  call void @llvm.lifetime.start.p0(i64 4, ptr %11) #9
  store i32 0, ptr %11, align 4, !tbaa !48
  call void @llvm.lifetime.start.p0(i64 4, ptr %12) #9
  store i32 1000, ptr %12, align 4, !tbaa !48
  %24 = load ptr, ptr %8, align 8, !tbaa !41
  %25 = getelementptr inbounds nuw %"struct.(anonymous namespace)::pj_imw_p_data", ptr %24, i32 0, i32 10
  %26 = load double, ptr %25, align 8, !tbaa !49
  %27 = getelementptr inbounds nuw %struct.PJ_LP, ptr %7, i32 0, i32 1
  store double %26, ptr %27, align 8, !tbaa !70
  %28 = getelementptr inbounds nuw %struct.PJ_XY, ptr %5, i32 0, i32 0
  %29 = load double, ptr %28, align 8, !tbaa !72
  %30 = getelementptr inbounds nuw %struct.PJ_LP, ptr %7, i32 0, i32 1
  %31 = load double, ptr %30, align 8, !tbaa !70
  %32 = call double @cos(double noundef %31) #9, !tbaa !48
  %33 = fdiv double %29, %32
  %34 = getelementptr inbounds nuw %struct.PJ_LP, ptr %7, i32 0, i32 0
  store double %33, ptr %34, align 8, !tbaa !74
  br label %35

35:                                               ; preds = %134, %3
  call void @llvm.lifetime.start.p0(i64 16, ptr %13) #9
  call void @llvm.memcpy.p0.p0.i64(ptr align 8 %14, ptr align 8 %7, i64 16, i1 false), !tbaa.struct !69
  %36 = load ptr, ptr %6, align 8, !tbaa !3
  %37 = getelementptr inbounds nuw { double, double }, ptr %14, i32 0, i32 0
  %38 = load double, ptr %37, align 8
  %39 = getelementptr inbounds nuw { double, double }, ptr %14, i32 0, i32 1
  %40 = load double, ptr %39, align 8
  %41 = call { double, double } @_ZL7loc_for5PJ_LPP8PJconstsPd(double %38, double %40, ptr noundef %36, ptr noundef %10)
  %42 = getelementptr inbounds nuw { double, double }, ptr %13, i32 0, i32 0
  %43 = extractvalue { double, double } %41, 0
  store double %43, ptr %42, align 8
  %44 = getelementptr inbounds nuw { double, double }, ptr %13, i32 0, i32 1
  %45 = extractvalue { double, double } %41, 1
  store double %45, ptr %44, align 8
  call void @llvm.memcpy.p0.p0.i64(ptr align 8 %9, ptr align 8 %13, i64 16, i1 false), !tbaa.struct !69
  call void @llvm.lifetime.end.p0(i64 16, ptr %13) #9
  call void @llvm.lifetime.start.p0(i64 8, ptr %15) #9
  %46 = getelementptr inbounds nuw %struct.PJ_XY, ptr %9, i32 0, i32 1
  %47 = load double, ptr %46, align 8, !tbaa !75
  %48 = load double, ptr %10, align 8, !tbaa !51
  %49 = fsub double %47, %48
  store double %49, ptr %15, align 8, !tbaa !51
  %50 = load double, ptr %15, align 8, !tbaa !51
  %51 = fcmp une double %50, 0.000000e+00
  br i1 %51, label %60, label %52

52:                                               ; preds = %35
  %53 = getelementptr inbounds nuw %struct.PJ_XY, ptr %9, i32 0, i32 1
  %54 = load double, ptr %53, align 8, !tbaa !75
  %55 = getelementptr inbounds nuw %struct.PJ_XY, ptr %5, i32 0, i32 1
  %56 = load double, ptr %55, align 8, !tbaa !75
  %57 = fsub double %54, %56
  %58 = call double @llvm.fabs.f64(double %57)
  %59 = fcmp ogt double %58, 1.000000e-10
  br i1 %59, label %60, label %85

60:                                               ; preds = %52, %35
  %61 = load double, ptr %15, align 8, !tbaa !51
  %62 = fcmp oeq double %61, 0.000000e+00
  br i1 %62, label %63, label %66

63:                                               ; preds = %60
  %64 = load ptr, ptr %6, align 8, !tbaa !3
  %65 = call i32 @proj_errno_set(ptr noundef %64, i32 noundef 2050)
  call void @llvm.lifetime.start.p0(i64 32, ptr %16) #9
  call void @_Z16proj_coord_errorv(ptr dead_on_unwind writable sret(%union.PJ_COORD) align 8 %16)
  call void @llvm.memcpy.p0.p0.i64(ptr align 8 %4, ptr align 8 %16, i64 16, i1 false), !tbaa.struct !69
  call void @llvm.lifetime.end.p0(i64 32, ptr %16) #9
  store i32 1, ptr %17, align 4
  br label %110

66:                                               ; preds = %60
  %67 = getelementptr inbounds nuw %struct.PJ_LP, ptr %7, i32 0, i32 1
  %68 = load double, ptr %67, align 8, !tbaa !70
  %69 = load ptr, ptr %8, align 8, !tbaa !41
  %70 = getelementptr inbounds nuw %"struct.(anonymous namespace)::pj_imw_p_data", ptr %69, i32 0, i32 9
  %71 = load double, ptr %70, align 8, !tbaa !50
  %72 = fsub double %68, %71
  %73 = getelementptr inbounds nuw %struct.PJ_XY, ptr %5, i32 0, i32 1
  %74 = load double, ptr %73, align 8, !tbaa !75
  %75 = load double, ptr %10, align 8, !tbaa !51
  %76 = fsub double %74, %75
  %77 = fmul double %72, %76
  %78 = load double, ptr %15, align 8, !tbaa !51
  %79 = fdiv double %77, %78
  %80 = load ptr, ptr %8, align 8, !tbaa !41
  %81 = getelementptr inbounds nuw %"struct.(anonymous namespace)::pj_imw_p_data", ptr %80, i32 0, i32 9
  %82 = load double, ptr %81, align 8, !tbaa !50
  %83 = fadd double %79, %82
  %84 = getelementptr inbounds nuw %struct.PJ_LP, ptr %7, i32 0, i32 1
  store double %83, ptr %84, align 8, !tbaa !70
  br label %85

85:                                               ; preds = %66, %52
  %86 = getelementptr inbounds nuw %struct.PJ_XY, ptr %9, i32 0, i32 0
  %87 = load double, ptr %86, align 8, !tbaa !72
  %88 = fcmp une double %87, 0.000000e+00
  br i1 %88, label %89, label %107

89:                                               ; preds = %85
  %90 = getelementptr inbounds nuw %struct.PJ_XY, ptr %9, i32 0, i32 0
  %91 = load double, ptr %90, align 8, !tbaa !72
  %92 = getelementptr inbounds nuw %struct.PJ_XY, ptr %5, i32 0, i32 0
  %93 = load double, ptr %92, align 8, !tbaa !72
  %94 = fsub double %91, %93
  %95 = call double @llvm.fabs.f64(double %94)
  %96 = fcmp ogt double %95, 1.000000e-10
  br i1 %96, label %97, label %107

97:                                               ; preds = %89
  %98 = getelementptr inbounds nuw %struct.PJ_LP, ptr %7, i32 0, i32 0
  %99 = load double, ptr %98, align 8, !tbaa !74
  %100 = getelementptr inbounds nuw %struct.PJ_XY, ptr %5, i32 0, i32 0
  %101 = load double, ptr %100, align 8, !tbaa !72
  %102 = fmul double %99, %101
  %103 = getelementptr inbounds nuw %struct.PJ_XY, ptr %9, i32 0, i32 0
  %104 = load double, ptr %103, align 8, !tbaa !72
  %105 = fdiv double %102, %104
  %106 = getelementptr inbounds nuw %struct.PJ_LP, ptr %7, i32 0, i32 0
  store double %105, ptr %106, align 8, !tbaa !74
  br label %107

107:                                              ; preds = %97, %89, %85
  %108 = load i32, ptr %11, align 4, !tbaa !48
  %109 = add nsw i32 %108, 1
  store i32 %109, ptr %11, align 4, !tbaa !48
  store i32 0, ptr %17, align 4
  br label %110

110:                                              ; preds = %107, %63
  call void @llvm.lifetime.end.p0(i64 8, ptr %15) #9
  %111 = load i32, ptr %17, align 4
  switch i32 %111, label %143 [
    i32 0, label %112
  ]

112:                                              ; preds = %110
  br label %113

113:                                              ; preds = %112
  %114 = load i32, ptr %11, align 4, !tbaa !48
  %115 = icmp slt i32 %114, 1000
  br i1 %115, label %116, label %134

116:                                              ; preds = %113
  %117 = getelementptr inbounds nuw %struct.PJ_XY, ptr %9, i32 0, i32 0
  %118 = load double, ptr %117, align 8, !tbaa !72
  %119 = getelementptr inbounds nuw %struct.PJ_XY, ptr %5, i32 0, i32 0
  %120 = load double, ptr %119, align 8, !tbaa !72
  %121 = fsub double %118, %120
  %122 = call double @llvm.fabs.f64(double %121)
  %123 = fcmp ogt double %122, 1.000000e-10
  br i1 %123, label %132, label %124

124:                                              ; preds = %116
  %125 = getelementptr inbounds nuw %struct.PJ_XY, ptr %9, i32 0, i32 1
  %126 = load double, ptr %125, align 8, !tbaa !75
  %127 = getelementptr inbounds nuw %struct.PJ_XY, ptr %5, i32 0, i32 1
  %128 = load double, ptr %127, align 8, !tbaa !75
  %129 = fsub double %126, %128
  %130 = call double @llvm.fabs.f64(double %129)
  %131 = fcmp ogt double %130, 1.000000e-10
  br label %132

132:                                              ; preds = %124, %116
  %133 = phi i1 [ true, %116 ], [ %131, %124 ]
  br label %134

134:                                              ; preds = %132, %113
  %135 = phi i1 [ false, %113 ], [ %133, %132 ]
  br i1 %135, label %35, label %136, !llvm.loop !76

136:                                              ; preds = %134
  %137 = load i32, ptr %11, align 4, !tbaa !48
  %138 = icmp eq i32 %137, 1000
  br i1 %138, label %139, label %142

139:                                              ; preds = %136
  %140 = load ptr, ptr %6, align 8, !tbaa !3
  %141 = call i32 @proj_errno_set(ptr noundef %140, i32 noundef 2050)
  call void @llvm.lifetime.start.p0(i64 32, ptr %18) #9
  call void @_Z16proj_coord_errorv(ptr dead_on_unwind writable sret(%union.PJ_COORD) align 8 %18)
  call void @llvm.memcpy.p0.p0.i64(ptr align 8 %4, ptr align 8 %18, i64 16, i1 false), !tbaa.struct !69
  call void @llvm.lifetime.end.p0(i64 32, ptr %18) #9
  store i32 1, ptr %17, align 4
  br label %143

142:                                              ; preds = %136
  call void @llvm.memcpy.p0.p0.i64(ptr align 8 %4, ptr align 8 %7, i64 16, i1 false), !tbaa.struct !69
  store i32 1, ptr %17, align 4
  br label %143

143:                                              ; preds = %142, %139, %110
  call void @llvm.lifetime.end.p0(i64 4, ptr %12) #9
  call void @llvm.lifetime.end.p0(i64 4, ptr %11) #9
  call void @llvm.lifetime.end.p0(i64 8, ptr %10) #9
  call void @llvm.lifetime.end.p0(i64 16, ptr %9) #9
  call void @llvm.lifetime.end.p0(i64 8, ptr %8) #9
  call void @llvm.lifetime.end.p0(i64 16, ptr %7) #9
  %144 = load { double, double }, ptr %4, align 8
  ret { double, double } %144
}