; Function Attrs: mustprogress uwtable
define internal { double, double } @_ZL15imw_p_e_inverse5PJ_XYP8PJconsts(double %0, double %1, ptr noundef %2) #0 {
  %4 = alloca double, align 8
  %5 = alloca %union.PJ_COORD, align 8
  %6 = alloca %union.PJ_COORD, align 8
  %7 = getelementptr inbounds nuw i8, ptr %2, i64 88
  %8 = load ptr, ptr %7, align 8, !tbaa !40
  call void @llvm.lifetime.start.p0(i64 8, ptr nonnull %4) #8
  store double 0.000000e+00, ptr %4, align 8, !tbaa !52
  %9 = getelementptr inbounds nuw i8, ptr %8, i64 80
  %10 = load double, ptr %9, align 8, !tbaa !48
  %11 = tail call double @cos(double noundef %10) #8, !tbaa !51
  %12 = fdiv double %0, %11
  %13 = getelementptr inbounds nuw i8, ptr %8, i64 72
  br label %.critedge2

.critedge2:                                       ; preds = %.critedge2.backedge, %3
  %.035 = phi i32 [ 0, %3 ], [ %45, %.critedge2.backedge ]
  %.sroa.8.0 = phi double [ %10, %3 ], [ %.sroa.8.1, %.critedge2.backedge ]
  %.sroa.018.0 = phi double [ %12, %3 ], [ %.sroa.018.2, %.critedge2.backedge ]
  %14 = call fastcc { double, double } @_ZL7loc_for5PJ_LPP8PJconstsPd(double %.sroa.018.0, double %.sroa.8.0, ptr noundef %2, ptr noundef %4)
  %15 = extractvalue { double, double } %14, 0
  %16 = extractvalue { double, double } %14, 1
  %17 = load double, ptr %4, align 8, !tbaa !52
  %18 = fsub double %16, %17
  %19 = fcmp une double %18, 0.000000e+00
  br i1 %19, label %24, label %20

20:                                               ; preds = %.critedge2
  %21 = fsub double %16, %1
  %22 = tail call double @llvm.fabs.f64(double %21)
  %23 = fcmp ogt double %22, 1.000000e-10
  br i1 %23, label %24, label %33

24:                                               ; preds = %20, %.critedge2
  %25 = fcmp oeq double %18, 0.000000e+00
  br i1 %25, label %42, label %26

26:                                               ; preds = %24
  %27 = load double, ptr %13, align 8, !tbaa !47
  %28 = fsub double %.sroa.8.0, %27
  %29 = fsub double %1, %17
  %30 = fmul double %29, %28
  %31 = fdiv double %30, %18
  %32 = fadd double %27, %31
  br label %33

33:                                               ; preds = %26, %20
  %.sroa.8.1 = phi double [ %32, %26 ], [ %.sroa.8.0, %20 ]
  %34 = fcmp une double %15, 0.000000e+00
  br i1 %34, label %35, label %44

35:                                               ; preds = %33
  %36 = fsub double %15, %0
  %37 = tail call double @llvm.fabs.f64(double %36)
  %38 = fcmp ogt double %37, 1.000000e-10
  br i1 %38, label %39, label %44

39:                                               ; preds = %35
  %40 = fmul double %0, %.sroa.018.0
  %41 = fdiv double %40, %15
  br label %44

42:                                               ; preds = %24
  %43 = tail call i32 @proj_errno_set(ptr noundef %2, i32 noundef 2050)
  call void @llvm.lifetime.start.p0(i64 32, ptr nonnull %5) #8
  call void @_Z16proj_coord_errorv(ptr dead_on_unwind nonnull writable sret(%union.PJ_COORD) align 8 %5)
  %.sroa.030.0.copyload = load double, ptr %5, align 8, !tbaa !52
  %.sroa.432.0..sroa_idx = getelementptr inbounds nuw i8, ptr %5, i64 8
  %.sroa.432.0.copyload = load double, ptr %.sroa.432.0..sroa_idx, align 8, !tbaa !52
  call void @llvm.lifetime.end.p0(i64 32, ptr nonnull %5) #8
  br label %.critedge.thread

44:                                               ; preds = %33, %35, %39
  %.sroa.018.2 = phi double [ %41, %39 ], [ %.sroa.018.0, %35 ], [ %.sroa.018.0, %33 ]
  %45 = add nuw nsw i32 %.035, 1
  %exitcond.not = icmp eq i32 %.035, 999
  br i1 %exitcond.not, label %.critedge, label %46

46:                                               ; preds = %44
  %47 = fsub double %15, %0
  %48 = tail call double @llvm.fabs.f64(double %47)
  %49 = fcmp ogt double %48, 1.000000e-10
  br i1 %49, label %.critedge2.backedge, label %50

50:                                               ; preds = %46
  %51 = fsub double %16, %1
  %52 = tail call double @llvm.fabs.f64(double %51)
  %53 = fcmp ogt double %52, 1.000000e-10
  br i1 %53, label %.critedge2.backedge, label %.critedge.thread

.critedge2.backedge:                              ; preds = %50, %46
  br label %.critedge2, !llvm.loop !64

.critedge:                                        ; preds = %44
  %54 = tail call i32 @proj_errno_set(ptr noundef %2, i32 noundef 2050)
  call void @llvm.lifetime.start.p0(i64 32, ptr nonnull %6) #8
  call void @_Z16proj_coord_errorv(ptr dead_on_unwind nonnull writable sret(%union.PJ_COORD) align 8 %6)
  %.sroa.030.0.copyload31 = load double, ptr %6, align 8, !tbaa !52
  %.sroa.432.0..sroa_idx33 = getelementptr inbounds nuw i8, ptr %6, i64 8
  %.sroa.432.0.copyload34 = load double, ptr %.sroa.432.0..sroa_idx33, align 8, !tbaa !52
  call void @llvm.lifetime.end.p0(i64 32, ptr nonnull %6) #8
  br label %.critedge.thread

.critedge.thread:                                 ; preds = %50, %42, %.critedge
  %.sroa.030.2 = phi double [ %.sroa.030.0.copyload31, %.critedge ], [ %.sroa.030.0.copyload, %42 ], [ %.sroa.018.2, %50 ]
  %.sroa.432.2 = phi double [ %.sroa.432.0.copyload34, %.critedge ], [ %.sroa.432.0.copyload, %42 ], [ %.sroa.8.1, %50 ]
  call void @llvm.lifetime.end.p0(i64 8, ptr nonnull %4) #8
  %.fca.0.insert = insertvalue { double, double } poison, double %.sroa.030.2, 0
  %.fca.1.insert = insertvalue { double, double } %.fca.0.insert, double %.sroa.432.2, 1
  ret { double, double } %.fca.1.insert
}